(dp0
VCWE-124
p1
(lp2
VCWE-786
p3
aVCWE-787
p4
asVCWE-125
p5
(lp6
VCWE-119
p7
asVCWE-126
p8
(lp9
VCWE-125
p10
aVCWE-788
p11
asVCWE-127
p12
(lp13
g10
ag3
asVCWE-120
p14
(lp15
g7
asVCWE-121
p16
(lp17
g4
ag11
asVCWE-122
p18
(lp19
g4
ag11
asVCWE-123
p20
(lp21
g7
asVCWE-043
p22
(lp23
VCWE-042
p24
aVCWE-163
p25
asVCWE-042
p26
(lp27
VCWE-041
p28
aVCWE-162
p29
asVCWE-041
p30
(lp31
VCWE-706
p32
asVCWE-040
p33
(lp34
VCWE-036
p35
asVCWE-047
p36
(lp37
g28
asVCWE-046
p38
(lp39
g28
ag29
asVCWE-045
p40
(lp41
VCWE-044
p42
aVCWE-165
p43
asVCWE-044
p44
(lp45
g28
asVCWE-419
p46
(lp47
VCWE-923
p48
asVCWE-048
p49
(lp50
g28
asVCWE-299
p51
(lp52
VCWE-404
p53
aVCWE-295
p54
asVCWE-601
p55
(lp56
VCWE-610
p57
asVCWE-600
p58
(lp59
VCWE-248
p60
asVCWE-603
p61
(lp62
VCWE-602
p63
aVCWE-287
p64
asVCWE-602
p65
(lp66
VCWE-693
p67
aVCWE-669
p68
asVCWE-605
p69
(lp70
VCWE-666
p71
aVCWE-675
p72
asVCWE-607
p73
(lp74
VCWE-471
p75
asVCWE-606
p76
(lp77
VCWE-020
p78
asVCWE-609
p79
(lp80
VCWE-667
p81
asVCWE-608
p82
(lp83
VCWE-668
p84
asVCWE-590
p85
(lp86
VCWE-762
p87
asVCWE-128
p88
(lp89
VCWE-682
p90
asVCWE-368
p91
(lp92
VCWE-362
p93
asVCWE-129
p94
(lp95
g78
asVCWE-369
p96
(lp97
g90
asVCWE-450
p98
(lp99
VCWE-357
p100
asVCWE-451
p101
(lp102
VCWE-684
p103
aVCWE-221
p104
asVCWE-360
p105
(lp106
VCWE-345
p107
asVCWE-179
p108
(lp109
VCWE-696
p110
ag67
asVCWE-178
p111
(lp112
g32
asVCWE-863
p113
(lp114
VCWE-285
p115
asVCWE-862
p116
(lp117
g115
asVCWE-515
p118
(lp119
VCWE-514
p120
asVCWE-514
p121
(lp122
g84
asVCWE-511
p123
(lp124
VCWE-506
p125
asVCWE-510
p126
(lp127
g125
asVCWE-512
p128
(lp129
g125
asVCWE-141
p130
(lp131
VCWE-140
p132
asVCWE-177
p133
(lp134
VCWE-172
p135
asVCWE-279
p136
(lp137
VCWE-732
p138
asVCWE-439
p139
(lp140
VCWE-435
p141
asVCWE-340
p142
(lp143
VCWE-330
p144
asVCWE-341
p145
(lp146
g144
asVCWE-342
p147
(lp148
g144
asVCWE-343
p149
(lp150
g144
asVCWE-344
p151
(lp152
g144
asVCWE-345
p153
(lp154
g67
asVCWE-346
p155
(lp156
g107
aVCWE-284
p157
asVCWE-347
p158
(lp159
g107
asVCWE-348
p160
(lp161
g107
asVCWE-349
p162
(lp163
g107
asVCWE-469
p164
(lp165
g90
asVCWE-468
p166
(lp167
g90
asVCWE-580
p168
(lp169
VCWE-573
p170
aVCWE-664
p171
asVCWE-581
p172
(lp173
g170
asVCWE-586
p174
(lp175
VCWE-710
p176
asVCWE-587
p177
(lp178
VCWE-344
p179
aVCWE-758
p180
asVCWE-584
p181
(lp182
VCWE-705
p183
asVCWE-585
p184
(lp185
g176
asVCWE-460
p186
(lp187
VCWE-755
p188
aVCWE-459
p189
asVCWE-588
p190
(lp191
VCWE-704
p192
ag180
asVCWE-589
p193
(lp194
VCWE-474
p195
asVCWE-539
p196
(lp197
VCWE-538
p198
asVCWE-467
p199
(lp200
g90
asVCWE-466
p201
(lp202
g7
asVCWE-168
p203
(lp204
VCWE-703
p205
aVCWE-159
p206
asVCWE-240
p207
(lp208
VCWE-707
p209
aVCWE-237
p210
asVCWE-243
p211
(lp212
g170
ag68
asVCWE-242
p213
(lp214
g176
asVCWE-245
p215
(lp216
VCWE-695
p217
asVCWE-244
p218
(lp219
VCWE-226
p220
asVCWE-246
p221
(lp222
g217
asVCWE-160
p223
(lp224
VCWE-138
p225
asVCWE-248
p226
(lp227
g205
ag183
asVCWE-162
p228
(lp229
g225
asVCWE-163
p230
(lp231
g29
asVCWE-164
p232
(lp233
g225
asVCWE-165
p234
(lp235
VCWE-164
p236
asVCWE-166
p237
(lp238
g205
ag206
asVCWE-167
p239
(lp240
g205
ag206
asVCWE-434
p241
(lp242
g68
asVCWE-435
p243
(lp244
S'CWE-1000'
p245
asVCWE-108
p246
(lp247
g78
asVCWE-645
p248
(lp249
g64
asVCWE-644
p250
(lp251
VCWE-116
p252
asVCWE-647
p253
(lp254
VCWE-863
p255
asVCWE-646
p256
(lp257
g107
asVCWE-641
p258
(lp259
VCWE-099
p260
asVCWE-640
p261
(lp262
g64
asVCWE-643
p263
(lp264
VCWE-943
p265
aVCWE-091
p266
asVCWE-642
p267
(lp268
g84
asVCWE-909
p269
(lp270
VCWE-665
p271
asVCWE-648
p272
(lp273
VCWE-269
p274
asVCWE-768
p275
(lp276
VCWE-691
p277
asVCWE-769
p278
(lp279
VCWE-400
p280
asVCWE-766
p281
(lp282
g84
asVCWE-767
p283
(lp284
g84
asVCWE-764
p285
(lp286
g81
ag72
asVCWE-765
p287
(lp288
g81
ag72
asVCWE-762
p289
(lp290
VCWE-763
p291
asVCWE-763
p292
(lp293
g53
asVCWE-760
p294
(lp295
VCWE-916
p296
asVCWE-761
p297
(lp298
g291
asVCWE-014
p299
(lp300
VCWE-733
p301
asVCWE-015
p302
(lp303
VCWE-642
p304
ag57
asVCWE-011
p305
(lp306
VCWE-215
p307
asVCWE-012
p308
(lp309
VCWE-756
p310
asVCWE-013
p311
(lp312
VCWE-260
p313
asVCWE-185
p314
(lp315
VCWE-697
p316
asVCWE-291
p317
(lp318
g75
ag48
aVCWE-290
p319
asVCWE-089
p320
(lp321
g265
asVCWE-088
p322
(lp323
VCWE-077
p324
asVCWE-087
p325
(lp326
VCWE-079
p327
asVCWE-086
p328
(lp329
VCWE-436
p330
ag327
asVCWE-085
p331
(lp332
g327
asVCWE-084
p333
(lp334
g327
asVCWE-083
p335
(lp336
g327
asVCWE-082
p337
(lp338
VCWE-083
p339
asVCWE-081
p340
(lp341
g327
asVCWE-080
p342
(lp343
g327
asVCWE-942
p344
(lp345
g84
ag157
aVCWE-183
p346
asVCWE-943
p347
(lp348
VCWE-074
p349
asVCWE-940
p350
(lp351
g48
asVCWE-941
p352
(lp353
g48
asVCWE-836
p354
(lp355
g64
asVCWE-837
p356
(lp357
VCWE-799
p358
asVCWE-834
p359
(lp360
g277
asVCWE-835
p361
(lp362
VCWE-834
p363
asVCWE-832
p364
(lp365
g81
asVCWE-833
p366
(lp367
g81
asVCWE-830
p368
(lp369
VCWE-829
p370
asVCWE-831
p371
(lp372
VCWE-364
p373
asVCWE-838
p374
(lp375
g252
asVCWE-839
p376
(lp377
VCWE-187
p378
asVCWE-546
p379
(lp380
g176
asVCWE-547
p381
(lp382
g176
asVCWE-544
p383
(lp384
g188
asVCWE-1007
p385
(lp386
VCWE-451
p387
asVCWE-428
p388
(lp389
g84
asVCWE-939
p390
(lp391
VCWE-862
p392
asVCWE-1004
p393
(lp394
g138
asVCWE-425
p395
(lp396
VCWE-424
p397
ag392
aVCWE-288
p398
asVCWE-424
p399
(lp400
g67
aVCWE-638
p401
asVCWE-427
p402
(lp403
g84
asVCWE-426
p404
(lp405
g304
aVCWE-673
p406
asVCWE-421
p407
(lp408
VCWE-420
p409
ag93
asVCWE-420
p410
(lp411
g48
asVCWE-548
p412
(lp413
g198
aVCWE-552
p414
asVCWE-549
p415
(lp416
VCWE-522
p417
asVCWE-689
p418
(lp419
g138
asVCWE-688
p420
(lp421
VCWE-628
p422
asVCWE-681
p423
(lp424
g192
asVCWE-680
p425
(lp426
g7
asVCWE-683
p427
(lp428
g422
asVCWE-682
p429
(lp430
g245
asVCWE-685
p431
(lp432
g422
asVCWE-684
p433
(lp434
g176
asVCWE-687
p435
(lp436
g422
asVCWE-686
p437
(lp438
g422
asVCWE-339
p439
(lp440
VCWE-335
p441
asVCWE-338
p442
(lp443
g144
asVCWE-331
p444
(lp445
g144
asVCWE-330
p446
(lp447
g245
asVCWE-333
p448
(lp449
VCWE-331
p450
ag205
asVCWE-332
p451
(lp452
g450
asVCWE-335
p453
(lp454
g144
asVCWE-334
p455
(lp456
g144
asVCWE-337
p457
(lp458
g441
asVCWE-336
p459
(lp460
g441
asVCWE-058
p461
(lp462
g28
asVCWE-110
p463
(lp464
g176
asVCWE-113
p465
(lp466
VCWE-093
p467
asVCWE-112
p468
(lp469
g78
asVCWE-115
p470
(lp471
g330
asVCWE-114
p472
(lp473
g78
asVCWE-117
p474
(lp475
g252
asVCWE-116
p476
(lp477
g209
asVCWE-050
p478
(lp479
g28
aVCWE-161
p480
asVCWE-051
p481
(lp482
g28
asVCWE-052
p483
(lp484
g28
ag25
asVCWE-053
p485
(lp486
g28
ag43
asVCWE-054
p487
(lp488
g28
ag29
asVCWE-055
p489
(lp490
g28
asVCWE-056
p491
(lp492
g28
aVCWE-155
p493
asVCWE-057
p494
(lp495
g28
asVCWE-322
p496
(lp497
g48
asVCWE-323
p498
(lp499
g179
asVCWE-703
p500
(lp501
g245
asVCWE-704
p502
(lp503
g171
asVCWE-312
p504
(lp505
VCWE-922
p506
aVCWE-311
p507
asVCWE-205
p508
(lp509
VCWE-203
p510
asVCWE-204
p511
(lp512
g510
asVCWE-755
p513
(lp514
g205
asVCWE-754
p515
(lp516
g205
asVCWE-201
p517
(lp518
VCWE-200
p519
asVCWE-200
p520
(lp521
g84
asVCWE-203
p522
(lp523
g519
asVCWE-202
p524
(lp525
VCWE-359
p526
asVCWE-616
p527
(lp528
g107
asVCWE-617
p529
(lp530
VCWE-670
p531
asVCWE-614
p532
(lp533
g507
asVCWE-908
p534
(lp535
g171
asVCWE-612
p536
(lp537
g519
asVCWE-208
p538
(lp539
g510
asVCWE-610
p540
(lp541
g171
asVCWE-611
p542
(lp543
g57
asVCWE-328
p544
(lp545
VCWE-326
p546
aVCWE-327
p547
asVCWE-282
p548
(lp549
g157
asVCWE-131
p550
(lp551
g90
asVCWE-130
p552
(lp553
VCWE-240
p554
asVCWE-472
p555
(lp556
g304
ag75
asVCWE-031
p557
(lp558
VCWE-023
p559
asVCWE-378
p560
(lp561
VCWE-377
p562
asVCWE-508
p563
(lp564
VCWE-507
p565
asVCWE-509
p566
(lp567
g565
asVCWE-502
p568
(lp569
VCWE-913
p570
asVCWE-500
p571
(lp572
VCWE-493
p573
asVCWE-501
p574
(lp575
g171
asVCWE-506
p576
(lp577
g176
asVCWE-507
p578
(lp579
g125
asVCWE-375
p580
(lp581
g84
asVCWE-374
p582
(lp583
g84
asVCWE-805
p584
(lp585
g7
asVCWE-489
p586
(lp587
g176
asVCWE-488
p588
(lp589
g171
asVCWE-483
p590
(lp591
g531
asVCWE-482
p592
(lp593
VCWE-480
p594
asVCWE-481
p595
(lp596
g594
asVCWE-480
p597
(lp598
g531
asVCWE-487
p599
(lp600
g171
asVCWE-486
p601
(lp602
g316
asVCWE-484
p603
(lp604
g176
ag531
asVCWE-479
p605
(lp606
VCWE-663
p607
aVCWE-828
p608
asVCWE-476
p609
(lp610
g176
asVCWE-477
p611
(lp612
g176
asVCWE-474
p613
(lp614
g176
asVCWE-475
p615
(lp616
g170
asVCWE-379
p617
(lp618
g562
asVCWE-473
p619
(lp620
g75
asVCWE-470
p621
(lp622
g57
ag570
asVCWE-471
p623
(lp624
g171
asVCWE-807
p625
(lp626
g67
asVCWE-806
p627
(lp628
VCWE-805
p629
asVCWE-377
p630
(lp631
g84
asVCWE-804
p632
(lp633
g255
ag144
ag64
asVCWE-370
p634
(lp635
VCWE-299
p636
asVCWE-478
p637
(lp638
g316
asVCWE-372
p639
(lp640
g316
asVCWE-077
p641
(lp642
g349
asVCWE-579
p643
(lp644
g170
asVCWE-578
p645
(lp646
g170
asVCWE-577
p647
(lp648
g170
asVCWE-576
p649
(lp650
g217
asVCWE-575
p651
(lp652
g217
asVCWE-574
p653
(lp654
g217
aVCWE-821
p655
asVCWE-573
p656
(lp657
g176
asVCWE-572
p658
(lp659
g655
asVCWE-571
p660
(lp661
g176
asVCWE-570
p662
(lp663
g176
asVCWE-397
p664
(lp665
g205
ag183
ag104
asVCWE-396
p666
(lp667
g183
ag104
ag188
asVCWE-395
p668
(lp669
g183
ag188
asVCWE-394
p670
(lp671
VCWE-754
p672
asVCWE-393
p673
(lp674
g103
ag205
asVCWE-392
p675
(lp676
g103
ag205
asVCWE-258
p677
(lp678
g313
aVCWE-521
p679
asVCWE-390
p680
(lp681
g188
asVCWE-256
p682
(lp683
g417
asVCWE-257
p684
(lp685
g417
asVCWE-252
p686
(lp687
g672
asVCWE-253
p688
(lp689
g170
ag672
asVCWE-250
p690
(lp691
VCWE-657
p692
ag274
asS'CWE-251'
p693
(lp694
S'CWE-287'
p695
asVCWE-542
p696
(lp697
VCWE-532
p698
asVCWE-543
p699
(lp700
VCWE-820
p701
asVCWE-652
p702
(lp703
g265
ag266
asVCWE-653
p704
(lp705
g692
ag67
asVCWE-650
p706
(lp707
g330
asVCWE-651
p708
(lp709
g198
asVCWE-656
p710
(lp711
g692
ag67
asVCWE-540
p712
(lp713
g198
ag414
asVCWE-654
p714
(lp715
g692
ag67
asVCWE-655
p716
(lp717
g692
ag67
asVCWE-541
p718
(lp719
VCWE-540
p720
asVCWE-710
p721
(lp722
g245
asVCWE-020
p723
(lp724
g67
asVCWE-023
p725
(lp726
VCWE-022
p727
asVCWE-022
p728
(lp729
g32
ag84
asVCWE-025
p730
(lp731
g559
asVCWE-024
p732
(lp733
g559
asVCWE-027
p734
(lp735
g559
asVCWE-026
p736
(lp737
g559
asVCWE-029
p738
(lp739
g559
asVCWE-028
p740
(lp741
g559
asVCWE-422
p742
(lp743
g409
aVCWE-360
p744
asVCWE-391
p745
(lp746
g205
asVCWE-259
p747
(lp748
VCWE-798
p749
asVCWE-636
p750
(lp751
g692
ag188
asVCWE-155
p752
(lp753
g225
asVCWE-626
p754
(lp755
g78
ag330
asVCWE-157
p756
(lp757
g225
asVCWE-624
p758
(lp759
g324
asVCWE-098
p760
(lp761
g32
ag370
asVCWE-622
p762
(lp763
g78
asVCWE-153
p764
(lp765
g225
asVCWE-620
p766
(lp767
g64
asVCWE-094
p768
(lp769
g277
ag570
ag349
asVCWE-095
p770
(lp771
VCWE-094
p772
asVCWE-096
p773
(lp774
g772
asVCWE-097
p775
(lp776
VCWE-096
p777
asVCWE-090
p778
(lp779
g265
asVCWE-158
p780
(lp781
g225
asVCWE-628
p782
(lp783
g170
asVCWE-619
p784
(lp785
VCWE-402
p786
asVCWE-118
p787
(lp788
g245
asVCWE-538
p789
(lp790
g519
asVCWE-843
p791
(lp792
g192
asVCWE-842
p793
(lp794
VCWE-286
p795
asVCWE-841
p796
(lp797
g277
asVCWE-329
p798
(lp799
g144
ag170
asVCWE-533
p800
(lp801
g698
asVCWE-532
p802
(lp803
g198
ag414
asVCWE-531
p804
(lp805
g720
asVCWE-530
p806
(lp807
g198
ag414
asVCWE-537
p808
(lp809
VCWE-210
p810
asVCWE-536
p811
(lp812
g810
asVCWE-535
p813
(lp814
g810
asVCWE-534
p815
(lp816
g698
asVCWE-432
p817
(lp818
g373
asVCWE-433
p819
(lp820
VCWE-219
p821
asVCWE-430
p822
(lp823
g277
asVCWE-431
p824
(lp825
g277
asVCWE-436
p826
(lp827
g141
asVCWE-437
p828
(lp829
g330
asVCWE-922
p830
(lp831
g171
asVCWE-923
p832
(lp833
g157
asVCWE-668
p834
(lp835
g171
asVCWE-109
p836
(lp837
g78
asVCWE-696
p838
(lp839
g277
asVCWE-697
p840
(lp841
g245
asVCWE-694
p842
(lp843
g170
ag260
asVCWE-695
p844
(lp845
g170
asVCWE-692
p846
(lp847
g327
asVCWE-693
p848
(lp849
g245
asVCWE-690
p850
(lp851
VCWE-476
p852
asVCWE-691
p853
(lp854
g245
asVCWE-698
p855
(lp856
g183
ag531
asVCWE-657
p857
(lp858
g176
asVCWE-326
p859
(lp860
g67
asVCWE-327
p861
(lp862
g67
asVCWE-325
p863
(lp864
g170
asVCWE-289
p865
(lp866
g64
asVCWE-288
p867
(lp868
g64
asVCWE-321
p869
(lp870
g749
asVCWE-285
p871
(lp872
g157
asVCWE-284
p873
(lp874
g67
ag171
asVCWE-287
p875
(lp876
g157
asVCWE-286
p877
(lp878
g157
asVCWE-281
p879
(lp880
g138
asVCWE-280
p881
(lp882
g205
asVCWE-283
p883
(lp884
VCWE-282
p885
asVCWE-749
p886
(lp887
g277
ag171
asVCWE-197
p888
(lp889
VCWE-681
p890
asVCWE-449
p891
(lp892
VCWE-446
p893
asVCWE-448
p894
(lp895
g893
asVCWE-447
p896
(lp897
g893
aVCWE-671
p898
asVCWE-446
p899
(lp900
g103
asVCWE-444
p901
(lp902
g330
asVCWE-441
p903
(lp904
g57
asVCWE-440
p905
(lp906
g103
asVCWE-267
p907
(lp908
g274
asVCWE-266
p909
(lp910
g274
asVCWE-263
p911
(lp912
g64
ag53
asVCWE-262
p913
(lp914
g64
ag53
asVCWE-261
p915
(lp916
g546
ag64
asVCWE-260
p917
(lp918
g417
asVCWE-106
p919
(lp920
g78
asVCWE-107
p921
(lp922
g176
asVCWE-104
p923
(lp924
g170
asVCWE-105
p925
(lp926
g78
asVCWE-102
p927
(lp928
VCWE-694
p929
asVCWE-103
p930
(lp931
g170
asVCWE-269
p932
(lp933
g157
asVCWE-268
p934
(lp935
g274
asVCWE-212
p936
(lp937
g519
ag68
asVCWE-198
p938
(lp939
VCWE-188
p940
asVCWE-669
p941
(lp942
g171
asVCWE-211
p943
(lp944
VCWE-209
p945
asVCWE-216
p946
(lp947
g171
asVCWE-214
p948
(lp949
g519
asVCWE-215
p950
(lp951
g519
asVCWE-663
p952
(lp953
VCWE-662
p954
asVCWE-662
p955
(lp956
g277
ag171
asVCWE-193
p957
(lp958
g90
asVCWE-192
p959
(lp960
g890
asVCWE-667
p961
(lp962
g954
asVCWE-666
p963
(lp964
g171
asVCWE-665
p965
(lp966
g171
asVCWE-196
p967
(lp968
g890
asVCWE-065
p969
(lp970
VCWE-059
p971
asVCWE-064
p972
(lp973
g971
asVCWE-066
p974
(lp975
g32
asVCWE-061
p976
(lp977
g971
asVCWE-062
p978
(lp979
g971
asVCWE-049
p980
(lp981
g28
ag29
asVCWE-290
p982
(lp983
g64
asVCWE-567
p984
(lp985
g701
asVCWE-759
p986
(lp987
g296
asVCWE-213
p988
(lp989
g519
asVCWE-758
p990
(lp991
g176
asVCWE-498
p992
(lp993
g171
asVCWE-499
p994
(lp995
g171
asVCWE-059
p996
(lp997
g32
asVCWE-210
p998
(lp999
g945
asVCWE-491
p1000
(lp1001
g84
asVCWE-492
p1002
(lp1003
g84
asVCWE-493
p1004
(lp1005
g84
aVCWE-216
p1006
asVCWE-494
p1007
(lp1008
g68
asVCWE-495
p1009
(lp1010
g171
asVCWE-496
p1011
(lp1012
g171
asVCWE-497
p1013
(lp1014
g519
asVCWE-793
p1015
(lp1016
VCWE-792
p1017
asVCWE-792
p1018
(lp1019
VCWE-791
p1020
asVCWE-791
p1021
(lp1022
VCWE-790
p1023
asVCWE-790
p1024
(lp1025
g225
asVCWE-797
p1026
(lp1027
VCWE-795
p1028
asVCWE-796
p1029
(lp1030
g1028
asVCWE-795
p1031
(lp1032
g1020
asVCWE-794
p1033
(lp1034
g1017
asVCWE-799
p1035
(lp1036
g277
asVCWE-798
p1037
(lp1038
g179
ag64
ag898
asVCWE-403
p1039
(lp1040
g786
asVCWE-402
p1041
(lp1042
g84
asVCWE-401
p1043
(lp1044
VCWE-772
p1045
asVCWE-400
p1046
(lp1047
g171
asVCWE-407
p1048
(lp1049
VCWE-405
p1050
asVCWE-406
p1051
(lp1052
g1050
asVCWE-405
p1053
(lp1054
g171
asVCWE-404
p1055
(lp1056
g171
asVCWE-362
p1057
(lp1058
g277
asVCWE-363
p1059
(lp1060
VCWE-367
p1061
asVCWE-409
p1062
(lp1063
g1050
asVCWE-408
p1064
(lp1065
g110
ag1050
asVCWE-366
p1066
(lp1067
g93
asVCWE-367
p1068
(lp1069
g93
asVCWE-364
p1070
(lp1071
g93
asVCWE-365
p1072
(lp1073
g1061
asVCWE-568
p1074
(lp1075
g170
ag189
asVCWE-311
p1076
(lp1077
g67
asVCWE-564
p1078
(lp1079
VCWE-089
p1080
asVCWE-565
p1081
(lp1082
g63
ag304
asVCWE-566
p1083
(lp1084
VCWE-639
p1085
asVCWE-191
p1086
(lp1087
g90
asVCWE-560
p1088
(lp1089
VCWE-687
p1090
asVCWE-561
p1091
(lp1092
g176
asVCWE-562
p1093
(lp1094
g176
asVCWE-563
p1095
(lp1096
g176
asVCWE-384
p1097
(lp1098
g64
asVCWE-111
p1099
(lp1100
g217
asVCWE-386
p1101
(lp1102
g32
asVCWE-228
p1103
(lp1104
g205
ag209
asVCWE-382
p1105
(lp1106
g183
asVCWE-383
p1107
(lp1108
g217
asVCWE-223
p1109
(lp1110
g104
asVCWE-222
p1111
(lp1112
g104
asVCWE-221
p1113
(lp1114
g171
asVCWE-220
p1115
(lp1116
g84
asVCWE-226
p1117
(lp1118
g519
ag189
asVCWE-224
p1119
(lp1120
g104
asVCWE-190
p1121
(lp1122
g90
asVCWE-582
p1123
(lp1124
g84
asVCWE-583
p1125
(lp1126
g84
asVCWE-708
p1127
(lp1128
g885
asVCWE-119
p1129
(lp1130
VCWE-118
p1131
asVCWE-319
p1132
(lp1133
g507
asVCWE-318
p1134
(lp1135
VCWE-312
p1136
asVCWE-317
p1137
(lp1138
g1136
asVCWE-316
p1139
(lp1140
g1136
asVCWE-315
p1141
(lp1142
g1136
asVCWE-314
p1143
(lp1144
g1136
asVCWE-313
p1145
(lp1146
g1136
asVCWE-705
p1147
(lp1148
g277
asVCWE-706
p1149
(lp1150
g171
asVCWE-707
p1151
(lp1152
g245
asVCWE-829
p1153
(lp1154
g68
asVCWE-135
p1155
(lp1156
g90
asVCWE-134
p1157
(lp1158
g349
asVCWE-038
p1159
(lp1160
g35
asVCWE-039
p1161
(lp1162
g35
asVCWE-036
p1163
(lp1164
g727
asVCWE-037
p1165
(lp1166
VCWE-160
p1167
ag35
asVCWE-034
p1168
(lp1169
g559
asVCWE-035
p1170
(lp1171
g559
asVCWE-032
p1172
(lp1173
g559
asVCWE-033
p1174
(lp1175
g559
asVCWE-030
p1176
(lp1177
g559
asVCWE-138
p1178
(lp1179
g209
asVCWE-463
p1180
(lp1181
g209
asVCWE-462
p1182
(lp1183
g929
asVCWE-464
p1184
(lp1185
g225
asVCWE-142
p1186
(lp1187
g132
asVCWE-143
p1188
(lp1189
g132
asVCWE-140
p1190
(lp1191
g225
asVCWE-637
p1192
(lp1193
g692
asVCWE-146
p1194
(lp1195
g132
asVCWE-147
p1196
(lp1197
g225
asVCWE-144
p1198
(lp1199
g132
asVCWE-145
p1200
(lp1201
g132
asVCWE-148
p1202
(lp1203
g225
asVCWE-149
p1204
(lp1205
g225
asVCWE-638
p1206
(lp1207
g692
ag392
asVCWE-639
p1208
(lp1209
g392
asVCWE-241
p1210
(lp1211
VCWE-228
p1212
asVCWE-824
p1213
(lp1214
g7
asVCWE-194
p1215
(lp1216
g890
asVCWE-627
p1217
(lp1218
VCWE-914
p1219
asVCWE-154
p1220
(lp1221
g225
asVCWE-625
p1222
(lp1223
VCWE-185
p1224
asVCWE-156
p1225
(lp1226
g225
asVCWE-161
p1227
(lp1228
g1167
asVCWE-623
p1229
(lp1230
g277
aVCWE-267
p1231
asVCWE-150
p1232
(lp1233
g225
asVCWE-621
p1234
(lp1235
g1219
asVCWE-521
p1236
(lp1237
g64
asVCWE-152
p1238
(lp1239
g225
asVCWE-219
p1240
(lp1241
g115
ag1006
asVCWE-1021
p1242
(lp1243
g387
aVCWE-441
p1244
asVCWE-099
p1245
(lp1246
g349
asVCWE-1022
p1247
(lp1248
VCWE-266
p1249
asVCWE-520
p1250
(lp1251
g1249
asVCWE-918
p1252
(lp1253
g1244
asVCWE-522
p1254
(lp1255
g84
ag64
asVCWE-523
p1256
(lp1257
g417
asVCWE-524
p1258
(lp1259
g519
asVCWE-525
p1260
(lp1261
VCWE-524
p1262
asVCWE-526
p1263
(lp1264
g519
asVCWE-527
p1265
(lp1266
g198
ag414
asVCWE-528
p1267
(lp1268
g198
ag414
asVCWE-529
p1269
(lp1270
g198
ag414
asVCWE-913
p1271
(lp1272
g171
asVCWE-912
p1273
(lp1274
g176
asVCWE-915
p1275
(lp1276
g570
asVCWE-914
p1277
(lp1278
g260
ag570
asVCWE-917
p1279
(lp1280
g324
asVCWE-916
p1281
(lp1282
g547
asVCWE-911
p1283
(lp1284
g171
asVCWE-093
p1285
(lp1286
g349
asVCWE-195
p1287
(lp1288
g890
asVCWE-353
p1289
(lp1290
g107
asVCWE-757
p1291
(lp1292
g67
asVCWE-351
p1293
(lp1294
g107
asVCWE-350
p1295
(lp1296
VCWE-807
p1297
ag48
ag319
asVCWE-357
p1298
(lp1299
g67
asVCWE-356
p1300
(lp1301
g104
asVCWE-756
p1302
(lp1303
g188
asVCWE-293
p1304
(lp1305
g319
asVCWE-359
p1306
(lp1307
g519
asVCWE-358
p1308
(lp1309
g170
ag67
asVCWE-296
p1310
(lp1311
g170
ag54
asVCWE-207
p1312
(lp1313
VCWE-205
p1314
asVCWE-294
p1315
(lp1316
g64
asVCWE-295
p1317
(lp1318
g67
asVCWE-595
p1319
(lp1320
g316
asVCWE-594
p1321
(lp1322
g176
asVCWE-597
p1323
(lp1324
g594
aVCWE-595
p1325
asVCWE-596
p1326
(lp1327
g316
asVCWE-591
p1328
(lp1329
VCWE-413
p1330
asVCWE-459
p1331
(lp1332
g53
asVCWE-593
p1333
(lp1334
g64
ag71
asVCWE-454
p1335
(lp1336
g271
asVCWE-455
p1337
(lp1338
g183
ag271
aVCWE-636
p1339
asVCWE-456
p1340
(lp1341
VCWE-909
p1342
asVCWE-457
p1343
(lp1344
g271
asVCWE-599
p1345
(lp1346
g54
asVCWE-598
p1347
(lp1348
g519
asVCWE-453
p1349
(lp1350
g271
asVCWE-274
p1351
(lp1352
g205
ag274
asVCWE-276
p1353
(lp1354
g138
asVCWE-277
p1355
(lp1356
g138
asVCWE-270
p1357
(lp1358
g274
asVCWE-618
p1359
(lp1360
VCWE-749
p1361
asVCWE-272
p1362
(lp1363
VCWE-271
p1364
asVCWE-273
p1365
(lp1366
g672
ag1364
asVCWE-173
p1367
(lp1368
g135
asVCWE-172
p1369
(lp1370
g209
asVCWE-170
p1371
(lp1372
g209
asVCWE-278
p1373
(lp1374
g138
asVCWE-176
p1375
(lp1376
g135
asVCWE-175
p1377
(lp1378
g135
asVCWE-174
p1379
(lp1380
g135
ag72
asVCWE-186
p1381
(lp1382
g1224
asVCWE-187
p1383
(lp1384
g316
asVCWE-184
p1385
(lp1386
g316
ag67
asVCWE-615
p1387
(lp1388
g720
asVCWE-182
p1389
(lp1390
g67
asVCWE-183
p1391
(lp1392
g316
ag67
asVCWE-180
p1393
(lp1394
VCWE-179
p1395
asVCWE-181
p1396
(lp1397
g1395
asVCWE-209
p1398
(lp1399
g519
ag188
asVCWE-188
p1400
(lp1401
g141
ag180
asVCWE-771
p1402
(lp1403
g280
asVCWE-770
p1404
(lp1405
g280
ag271
asVCWE-773
p1406
(lp1407
VCWE-771
p1408
asVCWE-772
p1409
(lp1410
g280
ag53
asVCWE-775
p1411
(lp1412
g1045
asVCWE-774
p1413
(lp1414
VCWE-770
p1415
asVCWE-777
p1416
(lp1417
VCWE-625
p1418
asVCWE-776
p1419
(lp1420
VCWE-409
p1421
aVCWE-674
p1422
asVCWE-670
p1423
(lp1424
g277
asVCWE-778
p1425
(lp1426
g67
aVCWE-223
p1427
asVCWE-672
p1428
(lp1429
g71
aVCWE-066
p1430
asVCWE-673
p1431
(lp1432
g171
asVCWE-674
p1433
(lp1434
g277
asVCWE-675
p1435
(lp1436
g170
asVCWE-676
p1437
(lp1438
g176
asVCWE-007
p1439
(lp1440
g1430
ag310
asVCWE-006
p1441
(lp1442
VCWE-334
p1443
asVCWE-005
p1444
(lp1445
VCWE-319
p1446
asVCWE-649
p1447
(lp1448
g107
asVCWE-009
p1449
(lp1450
g1249
ag1430
asVCWE-008
p1451
(lp1452
g84
asVCWE-271
p1453
(lp1454
g274
asVCWE-151
p1455
(lp1456
g225
asVCWE-924
p1457
(lp1458
g107
asVCWE-671
p1459
(lp1460
g692
asVCWE-073
p1461
(lp1462
g304
ag57
asVCWE-076
p1463
(lp1464
VCWE-075
p1465
asVCWE-925
p1466
(lp1467
g48
asVCWE-074
p1468
(lp1469
g209
asVCWE-075
p1470
(lp1471
g349
asVCWE-078
p1472
(lp1473
g324
asVCWE-079
p1474
(lp1475
g349
asVCWE-297
p1476
(lp1477
g48
ag54
asVCWE-091
p1478
(lp1479
g349
asVCWE-926
p1480
(lp1481
g115
asVCWE-229
p1482
(lp1483
g1212
asVCWE-927
p1484
(lp1485
g84
ag115
asVCWE-779
p1486
(lp1487
g280
asVCWE-920
p1488
(lp1489
g280
asVCWE-780
p1490
(lp1491
g547
asVCWE-781
p1492
(lp1493
g78
asVCWE-782
p1494
(lp1495
g1361
asVCWE-783
p1496
(lp1497
g531
asVCWE-784
p1498
(lp1499
g1297
aVCWE-565
p1500
asVCWE-785
p1501
(lp1502
VCWE-120
p1503
aVCWE-676
p1504
asVCWE-786
p1505
(lp1506
g7
asVCWE-787
p1507
(lp1508
g7
asVCWE-788
p1509
(lp1510
g7
asVCWE-789
p1511
(lp1512
g78
ag1415
asVCWE-410
p1513
(lp1514
g171
asVCWE-828
p1515
(lp1516
g373
asVCWE-412
p1517
(lp1518
g81
asVCWE-413
p1519
(lp1520
g81
asVCWE-414
p1521
(lp1522
g81
asVCWE-415
p1523
(lp1524
g71
ag72
aVCWE-825
p1525
asVCWE-416
p1526
(lp1527
g1525
asVCWE-821
p1528
(lp1529
g954
asVCWE-820
p1530
(lp1531
g954
asVCWE-823
p1532
(lp1533
g7
asVCWE-822
p1534
(lp1535
g7
asVCWE-825
p1536
(lp1537
g7
asVCWE-921
p1538
(lp1539
g506
asVCWE-827
p1540
(lp1541
g32
ag370
asVCWE-826
p1542
(lp1543
g71
asVCWE-558
p1544
(lp1545
g607
asVCWE-551
p1546
(lp1547
g255
ag110
asVCWE-550
p1548
(lp1549
g945
asVCWE-553
p1550
(lp1551
g414
asVCWE-552
p1552
(lp1553
g84
asVCWE-555
p1554
(lp1555
g417
asVCWE-554
p1556
(lp1557
g78
asVCWE-556
p1558
(lp1559
g1249
asVCWE-238
p1560
(lp1561
g210
asVCWE-239
p1562
(lp1563
g210
asVCWE-352
p1564
(lp1565
g107
asVCWE-230
p1566
(lp1567
VCWE-229
p1568
asVCWE-231
p1569
(lp1570
g1568
asVCWE-232
p1571
(lp1572
g1568
asVCWE-233
p1573
(lp1574
g1212
asVCWE-234
p1575
(lp1576
VCWE-233
p1577
asVCWE-235
p1578
(lp1579
g1577
asVCWE-236
p1580
(lp1581
g1577
asVCWE-237
p1582
(lp1583
g1212
asVCWE-385
p1584
(lp1585
g120
asVCWE-206
p1586
(lp1587
g1314
asVCWE-159
p1588
(lp1589
g225
asVCWE-664
p1590
(lp1591
g245
asVCWE-733
p1592
(lp1593
g141
ag180
asVCWE-732
p1594
(lp1595
g84
ag115
asVCWE-354
p1596
(lp1597
g107
ag672
asVCWE-308
p1598
(lp1599
VCWE-654
p1600
ag64
asVCWE-309
p1601
(lp1602
g1600
ag64
asVCWE-298
p1603
(lp1604
g54
asVCWE-304
p1605
(lp1606
g170
asVCWE-305
p1607
(lp1608
g64
asVCWE-306
p1609
(lp1610
g64
asVCWE-307
p1611
(lp1612
g64
ag358
asVCWE-300
p1613
(lp1614
g48
asVCWE-301
p1615
(lp1616
g64
asVCWE-302
p1617
(lp1618
g1297
ag64
asVCWE-303
p1619
(lp1620
g64
as.